target datalayout = "e-m:e-p270:32:32-p271:32:32-p272:64:64-i64:64-i128:128-f80:128-n8:16:32:64-S128"
target triple = "x86_64-pc-linux-gnu"

%"class.google::protobuf::internal::LogMessage" = type { i32, ptr, i32, %"class.std::__cxx11::basic_string" }
%"class.std::__cxx11::basic_string" = type { %"struct.std::__cxx11::basic_string<char>::_Alloc_hider", i64, %union.anon }
%"struct.std::__cxx11::basic_string<char>::_Alloc_hider" = type { ptr }
%union.anon = type { i64, [8 x i8] }
%"class.google::protobuf::internal::LogFinisher" = type { i8 }
%"class.google::protobuf::internal::RepeatedPtrFieldBase" = type { ptr, i32, i32, ptr }
%"struct.google::protobuf::internal::RepeatedPtrFieldBase::Rep" = type { i32, [268435454 x ptr] }

@.str = private unnamed_addr constant [151 x i8] c"generated/home/dtcxzyw/WorkSpace/Projects/compilers/llvm-opt-benchmark/bench/opencv/opencv/3rdparty/protobuf/src/google/protobuf/repeated_ptr_field.cc\00", align 1
@.str.3 = private unnamed_addr constant [21 x i8] c"CHECK failed: rep_: \00", align 1
@.str.4 = private unnamed_addr constant [34 x i8] c"CHECK failed: arena_ == nullptr: \00", align 1

; Function Attrs: mustprogress uwtable
define hidden void @_ZN6google8protobuf8internal20RepeatedPtrFieldBase13DestroyProtosEv(ptr noundef nonnull align 8 dereferenceable(24) %0) #4 align 2 personality ptr @__gxx_personality_v0 {
  %2 = alloca ptr, align 8
  %3 = alloca %"class.google::protobuf::internal::LogMessage", align 8
  %4 = alloca i1, align 1
  %5 = alloca i1, align 1
  %6 = alloca ptr, align 8
  %7 = alloca i32, align 4
  %8 = alloca %"class.google::protobuf::internal::LogFinisher", align 1
  %9 = alloca %"class.google::protobuf::internal::LogMessage", align 8
  %10 = alloca i1, align 1
  %11 = alloca i1, align 1
  %12 = alloca %"class.google::protobuf::internal::LogFinisher", align 1
  %13 = alloca i32, align 4
  %14 = alloca ptr, align 8
  %15 = alloca i32, align 4
  store ptr %0, ptr %2, align 8, !tbaa !3
  %16 = load ptr, ptr %2, align 8
  br label %17

17:                                               ; preds = %33, %1
  br i1 false, label %18, label %49

18:                                               ; preds = %17
  %19 = getelementptr inbounds nuw %"class.google::protobuf::internal::RepeatedPtrFieldBase", ptr %16, i32 0, i32 3
  %20 = load ptr, ptr %19, align 8, !tbaa !15
  %21 = icmp ne ptr %20, null
  store i1 false, ptr %4, align 1
  store i1 false, ptr %5, align 1
  call void @llvm.lifetime.start.p0(i64 1, ptr %8) #3
  br i1 %21, label %22, label %23

22:                                               ; preds = %18
  br label %27

23:                                               ; preds = %18
  call void @llvm.lifetime.start.p0(i64 56, ptr %3) #3
  store i1 true, ptr %4, align 1
  call void @_ZN6google8protobuf8internal10LogMessageC1ENS0_8LogLevelEPKci(ptr noundef nonnull align 8 dereferenceable(56) %3, i32 noundef 3, ptr noundef @.str, i32 noundef 102)
  store i1 true, ptr %5, align 1
  %24 = invoke noundef nonnull align 8 dereferenceable(56) ptr @_ZN6google8protobuf8internal10LogMessagelsEPKc(ptr noundef nonnull align 8 dereferenceable(56) %3, ptr noundef @.str.3)
          to label %25 unwind label %34

25:                                               ; preds = %23
  invoke void @_ZN6google8protobuf8internal11LogFinisheraSERNS1_10LogMessageE(ptr noundef nonnull align 1 dereferenceable(1) %8, ptr noundef nonnull align 8 dereferenceable(56) %24)
          to label %26 unwind label %38

26:                                               ; preds = %25
  br label %27

27:                                               ; preds = %26, %22
  call void @llvm.lifetime.end.p0(i64 1, ptr %8) #3
  %28 = load i1, ptr %5, align 1
  br i1 %28, label %29, label %30

29:                                               ; preds = %27
  call void @_ZN6google8protobuf8internal10LogMessageD1Ev(ptr noundef nonnull align 8 dereferenceable(56) %3) #3
  br label %30

30:                                               ; preds = %29, %27
  %31 = load i1, ptr %4, align 1
  br i1 %31, label %32, label %33

32:                                               ; preds = %30
  call void @llvm.lifetime.end.p0(i64 56, ptr %3) #3
  br label %33

33:                                               ; preds = %32, %30
  br label %17, !llvm.loop !25

34:                                               ; preds = %23
  %35 = landingpad { ptr, i32 }
          cleanup
  %36 = extractvalue { ptr, i32 } %35, 0
  store ptr %36, ptr %6, align 8
  %37 = extractvalue { ptr, i32 } %35, 1
  store i32 %37, ptr %7, align 4
  br label %42

38:                                               ; preds = %25
  %39 = landingpad { ptr, i32 }
          cleanup
  %40 = extractvalue { ptr, i32 } %39, 0
  store ptr %40, ptr %6, align 8
  %41 = extractvalue { ptr, i32 } %39, 1
  store i32 %41, ptr %7, align 4
  call void @llvm.lifetime.end.p0(i64 1, ptr %8) #3
  br label %42

42:                                               ; preds = %38, %34
  %43 = load i1, ptr %5, align 1
  br i1 %43, label %44, label %45

44:                                               ; preds = %42
  call void @_ZN6google8protobuf8internal10LogMessageD1Ev(ptr noundef nonnull align 8 dereferenceable(56) %3) #3
  br label %45

45:                                               ; preds = %44, %42
  %46 = load i1, ptr %4, align 1
  br i1 %46, label %47, label %48

47:                                               ; preds = %45
  call void @llvm.lifetime.end.p0(i64 56, ptr %3) #3
  br label %48

48:                                               ; preds = %47, %45
  br label %115

49:                                               ; preds = %17
  br label %50

50:                                               ; preds = %66, %49
  br i1 false, label %51, label %82

51:                                               ; preds = %50
  %52 = getelementptr inbounds nuw %"class.google::protobuf::internal::RepeatedPtrFieldBase", ptr %16, i32 0, i32 0
  %53 = load ptr, ptr %52, align 8, !tbaa !22
  %54 = icmp eq ptr %53, null
  store i1 false, ptr %10, align 1
  store i1 false, ptr %11, align 1
  call void @llvm.lifetime.start.p0(i64 1, ptr %12) #3
  br i1 %54, label %55, label %56

55:                                               ; preds = %51
  br label %60

56:                                               ; preds = %51
  call void @llvm.lifetime.start.p0(i64 56, ptr %9) #3
  store i1 true, ptr %10, align 1
  call void @_ZN6google8protobuf8internal10LogMessageC1ENS0_8LogLevelEPKci(ptr noundef nonnull align 8 dereferenceable(56) %9, i32 noundef 3, ptr noundef @.str, i32 noundef 103)
  store i1 true, ptr %11, align 1
  %57 = invoke noundef nonnull align 8 dereferenceable(56) ptr @_ZN6google8protobuf8internal10LogMessagelsEPKc(ptr noundef nonnull align 8 dereferenceable(56) %9, ptr noundef @.str.4)
          to label %58 unwind label %67

58:                                               ; preds = %56
  invoke void @_ZN6google8protobuf8internal11LogFinisheraSERNS1_10LogMessageE(ptr noundef nonnull align 1 dereferenceable(1) %12, ptr noundef nonnull align 8 dereferenceable(56) %57)
          to label %59 unwind label %71

59:                                               ; preds = %58
  br label %60

60:                                               ; preds = %59, %55
  call void @llvm.lifetime.end.p0(i64 1, ptr %12) #3
  %61 = load i1, ptr %11, align 1
  br i1 %61, label %62, label %63

62:                                               ; preds = %60
  call void @_ZN6google8protobuf8internal10LogMessageD1Ev(ptr noundef nonnull align 8 dereferenceable(56) %9) #3
  br label %63

63:                                               ; preds = %62, %60
  %64 = load i1, ptr %10, align 1
  br i1 %64, label %65, label %66

65:                                               ; preds = %63
  call void @llvm.lifetime.end.p0(i64 56, ptr %9) #3
  br label %66

66:                                               ; preds = %65, %63
  br label %50, !llvm.loop !27

67:                                               ; preds = %56
  %68 = landingpad { ptr, i32 }
          cleanup
  %69 = extractvalue { ptr, i32 } %68, 0
  store ptr %69, ptr %6, align 8
  %70 = extractvalue { ptr, i32 } %68, 1
  store i32 %70, ptr %7, align 4
  br label %75

71:                                               ; preds = %58
  %72 = landingpad { ptr, i32 }
          cleanup
  %73 = extractvalue { ptr, i32 } %72, 0
  store ptr %73, ptr %6, align 8
  %74 = extractvalue { ptr, i32 } %72, 1
  store i32 %74, ptr %7, align 4
  call void @llvm.lifetime.end.p0(i64 1, ptr %12) #3
  br label %75

75:                                               ; preds = %71, %67
  %76 = load i1, ptr %11, align 1
  br i1 %76, label %77, label %78

77:                                               ; preds = %75
  call void @_ZN6google8protobuf8internal10LogMessageD1Ev(ptr noundef nonnull align 8 dereferenceable(56) %9) #3
  br label %78

78:                                               ; preds = %77, %75
  %79 = load i1, ptr %10, align 1
  br i1 %79, label %80, label %81

80:                                               ; preds = %78
  call void @llvm.lifetime.end.p0(i64 56, ptr %9) #3
  br label %81

81:                                               ; preds = %80, %78
  br label %115

82:                                               ; preds = %50
  call void @llvm.lifetime.start.p0(i64 4, ptr %13) #3
  %83 = getelementptr inbounds nuw %"class.google::protobuf::internal::RepeatedPtrFieldBase", ptr %16, i32 0, i32 3
  %84 = load ptr, ptr %83, align 8, !tbaa !15
  %85 = getelementptr inbounds nuw %"struct.google::protobuf::internal::RepeatedPtrFieldBase::Rep", ptr %84, i32 0, i32 0
  %86 = load i32, ptr %85, align 8, !tbaa !20
  store i32 %86, ptr %13, align 4, !tbaa !8
  call void @llvm.lifetime.start.p0(i64 8, ptr %14) #3
  %87 = getelementptr inbounds nuw %"class.google::protobuf::internal::RepeatedPtrFieldBase", ptr %16, i32 0, i32 3
  %88 = load ptr, ptr %87, align 8, !tbaa !15
  %89 = getelementptr inbounds nuw %"struct.google::protobuf::internal::RepeatedPtrFieldBase::Rep", ptr %88, i32 0, i32 1
  %90 = getelementptr inbounds [268435454 x ptr], ptr %89, i64 0, i64 0
  store ptr %90, ptr %14, align 8, !tbaa !28
  call void @llvm.lifetime.start.p0(i64 4, ptr %15) #3
  store i32 0, ptr %15, align 4, !tbaa !8
  br label %91

91:                                               ; preds = %108, %82
  %92 = load i32, ptr %15, align 4, !tbaa !8
  %93 = load i32, ptr %13, align 4, !tbaa !8
  %94 = icmp slt i32 %92, %93
  br i1 %94, label %96, label %95

95:                                               ; preds = %91
  call void @llvm.lifetime.end.p0(i64 4, ptr %15) #3
  br label %111

96:                                               ; preds = %91
  %97 = load ptr, ptr %14, align 8, !tbaa !28
  %98 = load i32, ptr %15, align 4, !tbaa !8
  %99 = sext i32 %98 to i64
  %100 = getelementptr inbounds ptr, ptr %97, i64 %99
  %101 = load ptr, ptr %100, align 8, !tbaa !30
  %102 = icmp eq ptr %101, null
  br i1 %102, label %107, label %103

103:                                              ; preds = %96
  %104 = load ptr, ptr %101, align 8, !tbaa !31
  %105 = getelementptr inbounds ptr, ptr %104, i64 1
  %106 = load ptr, ptr %105, align 8
  call void %106(ptr noundef nonnull align 8 dereferenceable(16) %101) #3
  br label %107

107:                                              ; preds = %103, %96
  br label %108

108:                                              ; preds = %107
  %109 = load i32, ptr %15, align 4, !tbaa !8
  %110 = add nsw i32 %109, 1
  store i32 %110, ptr %15, align 4, !tbaa !8
  br label %91, !llvm.loop !33

111:                                              ; preds = %95
  %112 = getelementptr inbounds nuw %"class.google::protobuf::internal::RepeatedPtrFieldBase", ptr %16, i32 0, i32 3
  %113 = load ptr, ptr %112, align 8, !tbaa !15
  call void @_ZdlPv(ptr noundef %113) #3
  %114 = getelementptr inbounds nuw %"class.google::protobuf::internal::RepeatedPtrFieldBase", ptr %16, i32 0, i32 3
  store ptr null, ptr %114, align 8, !tbaa !15
  call void @llvm.lifetime.end.p0(i64 8, ptr %14) #3
  call void @llvm.lifetime.end.p0(i64 4, ptr %13) #3
  ret void

115:                                              ; preds = %81, %48
  %116 = load ptr, ptr %6, align 8
  %117 = load i32, ptr %7, align 4
  %118 = insertvalue { ptr, i32 } poison, ptr %116, 0
  %119 = insertvalue { ptr, i32 } %118, i32 %117, 1
  resume { ptr, i32 } %119
}