; Function Attrs: mustprogress uwtable
define hidden void @_ZN6google8protobuf8internal20RepeatedPtrFieldBase13DestroyProtosEv(ptr noundef nonnull align 8 captures(none) dereferenceable(24) %0) local_unnamed_addr #3 align 2 personality ptr @__gxx_personality_v0 {
  %2 = getelementptr inbounds nuw i8, ptr %0, i64 16
  %3 = load ptr, ptr %2, align 8, !tbaa !12
  %4 = load i32, ptr %3, align 8, !tbaa !14
  %5 = getelementptr inbounds nuw i8, ptr %3, i64 8
  %6 = icmp sgt i32 %4, 0
  br i1 %6, label %.lr.ph.preheader, label %._crit_edge

.lr.ph.preheader:                                 ; preds = %1
  %wide.trip.count = zext nneg i32 %4 to i64
  br label %.lr.ph

._crit_edge.loopexit:                             ; preds = %15
  %.pre = load ptr, ptr %2, align 8, !tbaa !12
  br label %._crit_edge

._crit_edge:                                      ; preds = %._crit_edge.loopexit, %1
  %7 = phi ptr [ %.pre, %._crit_edge.loopexit ], [ %3, %1 ]
  tail call void @_ZdlPv(ptr noundef %7) #12
  store ptr null, ptr %2, align 8, !tbaa !12
  ret void

.lr.ph:                                           ; preds = %.lr.ph.preheader, %15
  %indvars.iv = phi i64 [ 0, %.lr.ph.preheader ], [ %indvars.iv.next, %15 ]
  %8 = getelementptr inbounds nuw ptr, ptr %5, i64 %indvars.iv
  %9 = load ptr, ptr %8, align 8, !tbaa !16
  %10 = icmp eq ptr %9, null
  br i1 %10, label %15, label %11

11:                                               ; preds = %.lr.ph
  %12 = load ptr, ptr %9, align 8, !tbaa !17
  %13 = getelementptr inbounds nuw i8, ptr %12, i64 8
  %14 = load ptr, ptr %13, align 8
  tail call void %14(ptr noundef nonnull align 8 dereferenceable(16) %9) #12
  br label %15

15:                                               ; preds = %.lr.ph, %11
  %indvars.iv.next = add nuw nsw i64 %indvars.iv, 1
  %exitcond.not = icmp eq i64 %indvars.iv.next, %wide.trip.count
  br i1 %exitcond.not, label %._crit_edge.loopexit, label %.lr.ph, !llvm.loop !19
}